; Function Attrs: nounwind uwtable
define dso_local i32 @conn_reply_error(ptr noundef readonly captures(none) %0, ptr noundef %1) local_unnamed_addr #0 {
  %3 = getelementptr inbounds nuw i8, ptr %0, i64 72
  %4 = load i32, ptr %3, align 8, !tbaa !18
  %.not.i = icmp eq i32 %4, 0
  %5 = getelementptr inbounds nuw i8, ptr %0, i64 20
  %6 = load i32, ptr %5, align 4, !tbaa !25
  %7 = getelementptr inbounds nuw i8, ptr %0, i64 56
  %8 = load i8, ptr %7, align 8, !tbaa !26
  %9 = sext i8 %8 to i32
  br i1 %.not.i, label %12, label %10

10:                                               ; preds = %2
  %11 = tail call i32 (i32, ptr, ...) @mdprintf(i32 noundef %6, ptr noundef nonnull @.str.8, i32 noundef %4, ptr noundef %1, ptr noundef nonnull @.str.13, i32 noundef %9) #14
  br label %conn_reply.exit

12:                                               ; preds = %2
  %13 = tail call i32 (i32, ptr, ...) @mdprintf(i32 noundef %6, ptr noundef nonnull @.str.10, ptr noundef %1, ptr noundef nonnull @.str.13, i32 noundef %9) #14
  br label %conn_reply.exit

conn_reply.exit:                                  ; preds = %10, %12
  %.0.i = phi i32 [ %11, %10 ], [ %13, %12 ]
  ret i32 %.0.i
}